; Function Attrs: mustprogress uwtable
define void @_ZNK5arrow7compute10OutputType7ResolveEPNS0_13KernelContextERKSt6vectorINS_10TypeHolderESaIS5_EE(ptr noalias sret(%"class.arrow::Result.100") align 8 %agg.result, ptr noundef nonnull align 8 dereferenceable(56) %this, ptr noundef %ctx, ptr noundef nonnull align 8 dereferenceable(24) %types) local_unnamed_addr #0 align 2 personality ptr @__gxx_personality_v0 {
entry:
  %__args.addr.i = alloca ptr, align 8
  %0 = load i32, ptr %this, align 8
  %cmp = icmp eq i32 %0, 0
  br i1 %cmp, label %if.then, label %if.else

if.then:                                          ; preds = %entry
  %type_ = getelementptr inbounds i8, ptr %this, i64 8
  %1 = load ptr, ptr %type_, align 8
  store ptr null, ptr %agg.result, align 8
  %storage_.i.i = getelementptr inbounds i8, ptr %agg.result, i64 8
  store ptr %1, ptr %storage_.i.i, align 8
  %owned_type.i.i.i.i = getelementptr inbounds i8, ptr %agg.result, i64 16
  tail call void @llvm.memset.p0.i64(ptr noundef nonnull align 8 dereferenceable(16) %owned_type.i.i.i.i, i8 0, i64 16, i1 false)
  br label %return

if.else:                                          ; preds = %entry
  call void @llvm.lifetime.start.p0(i64 8, ptr nonnull %__args.addr.i)
  store ptr %ctx, ptr %__args.addr.i, align 8, !noalias !97
  %_M_manager.i.i = getelementptr inbounds i8, ptr %this, i64 40
  %2 = load ptr, ptr %_M_manager.i.i, align 8, !noalias !97
  %tobool.not.i.i = icmp eq ptr %2, null
  br i1 %tobool.not.i.i, label %if.then.i, label %_ZNKSt8functionIFN5arrow6ResultINS0_10TypeHolderEEEPNS0_7compute13KernelContextERKSt6vectorIS2_SaIS2_EEEEclES6_SB_.exit

if.then.i:                                        ; preds = %if.else
  tail call void @_ZSt25__throw_bad_function_callv() #21, !noalias !97
  unreachable

_ZNKSt8functionIFN5arrow6ResultINS0_10TypeHolderEEEPNS0_7compute13KernelContextERKSt6vectorIS2_SaIS2_EEEEclES6_SB_.exit: ; preds = %if.else
  %resolver_ = getelementptr inbounds i8, ptr %this, i64 24
  %_M_invoker.i = getelementptr inbounds i8, ptr %this, i64 48
  %3 = load ptr, ptr %_M_invoker.i, align 8, !noalias !97
  call void %3(ptr sret(%"class.arrow::Result.100") align 8 %agg.result, ptr noundef nonnull align 8 dereferenceable(16) %resolver_, ptr noundef nonnull align 8 dereferenceable(8) %__args.addr.i, ptr noundef nonnull align 8 dereferenceable(24) %types)
  call void @llvm.lifetime.end.p0(i64 8, ptr nonnull %__args.addr.i)
  br label %return

return:                                           ; preds = %_ZNKSt8functionIFN5arrow6ResultINS0_10TypeHolderEEEPNS0_7compute13KernelContextERKSt6vectorIS2_SaIS2_EEEEclES6_SB_.exit, %if.then
  ret void
}